target datalayout = "e-m:e-p270:32:32-p271:32:32-p272:64:64-i64:64-i128:128-f80:128-n8:16:32:64-S128"
target triple = "x86_64-pc-linux-gnu"

%struct.ImGuiMultiSelectIO = type { %struct.ImVector.41, i64, i64, i8, i8, i32 }
%struct.ImVector.41 = type { i32, i32, ptr }
%struct.ImGuiSelectionRequest = type { i32, i8, i8, i64, i64 }
%struct.ImGuiSelectionExternalStorage = type { ptr, ptr }

; Function Attrs: inlinehint mustprogress nounwind uwtable
define linkonce_odr dso_local noundef ptr @_ZN8ImVectorI21ImGuiSelectionRequestE3endEv(ptr noundef nonnull align 8 dereferenceable(16) %0) #2 comdat align 2 {
  %2 = alloca ptr, align 8
  store ptr %0, ptr %2, align 8, !tbaa !686
  %3 = load ptr, ptr %2, align 8
  %4 = getelementptr inbounds nuw %struct.ImVector.41, ptr %3, i32 0, i32 2
  %5 = load ptr, ptr %4, align 8, !tbaa !708
  %6 = getelementptr inbounds nuw %struct.ImVector.41, ptr %3, i32 0, i32 0
  %7 = load i32, ptr %6, align 8, !tbaa !689
  %8 = sext i32 %7 to i64
  %9 = getelementptr inbounds %struct.ImGuiSelectionRequest, ptr %5, i64 %8
  ret ptr %9
}

; Function Attrs: inlinehint mustprogress nounwind uwtable
define linkonce_odr dso_local noundef ptr @_ZN8ImVectorI21ImGuiSelectionRequestE5beginEv(ptr noundef nonnull align 8 dereferenceable(16) %0) #2 comdat align 2 {
  %2 = alloca ptr, align 8
  store ptr %0, ptr %2, align 8, !tbaa !686
  %3 = load ptr, ptr %2, align 8
  %4 = getelementptr inbounds nuw %struct.ImVector.41, ptr %3, i32 0, i32 2
  %5 = load ptr, ptr %4, align 8, !tbaa !708
  ret ptr %5
}

; Function Attrs: mustprogress uwtable
define dso_local void @_ZN29ImGuiSelectionExternalStorage13ApplyRequestsEP18ImGuiMultiSelectIO(ptr noundef nonnull align 8 dereferenceable(16) %0, ptr noundef %1) #8 align 2 {
  %3 = alloca ptr, align 8
  %4 = alloca ptr, align 8
  %5 = alloca ptr, align 8
  %6 = alloca ptr, align 8
  %7 = alloca ptr, align 8
  %8 = alloca i32, align 4
  %9 = alloca ptr, align 8
  %10 = alloca i32, align 4
  %11 = alloca i32, align 4
  store ptr %0, ptr %3, align 8, !tbaa !734
  store ptr %1, ptr %4, align 8, !tbaa !699
  %12 = load ptr, ptr %3, align 8
  call void @llvm.lifetime.start.p0(i64 8, ptr %5) #17
  %13 = load ptr, ptr %4, align 8, !tbaa !699
  %14 = getelementptr inbounds nuw %struct.ImGuiMultiSelectIO, ptr %13, i32 0, i32 0
  store ptr %14, ptr %5, align 8, !tbaa !686
  call void @llvm.lifetime.start.p0(i64 8, ptr %6) #17
  %15 = load ptr, ptr %5, align 8, !tbaa !686
  %16 = call noundef ptr @_ZN8ImVectorI21ImGuiSelectionRequestE5beginEv(ptr noundef nonnull align 8 dereferenceable(16) %15)
  store ptr %16, ptr %6, align 8, !tbaa !701
  call void @llvm.lifetime.start.p0(i64 8, ptr %7) #17
  %17 = load ptr, ptr %5, align 8, !tbaa !686
  %18 = call noundef ptr @_ZN8ImVectorI21ImGuiSelectionRequestE3endEv(ptr noundef nonnull align 8 dereferenceable(16) %17)
  store ptr %18, ptr %7, align 8, !tbaa !701
  br label %19

19:                                               ; preds = %81, %2
  %20 = load ptr, ptr %6, align 8, !tbaa !701
  %21 = load ptr, ptr %7, align 8, !tbaa !701
  %22 = icmp ne ptr %20, %21
  br i1 %22, label %24, label %23

23:                                               ; preds = %19
  store i32 2, ptr %8, align 4
  call void @llvm.lifetime.end.p0(i64 8, ptr %7) #17
  call void @llvm.lifetime.end.p0(i64 8, ptr %6) #17
  call void @llvm.lifetime.end.p0(i64 8, ptr %5) #17
  br label %84

24:                                               ; preds = %19
  call void @llvm.lifetime.start.p0(i64 8, ptr %9) #17
  %25 = load ptr, ptr %6, align 8, !tbaa !701
  store ptr %25, ptr %9, align 8, !tbaa !701
  %26 = load ptr, ptr %9, align 8, !tbaa !701
  %27 = getelementptr inbounds nuw %struct.ImGuiSelectionRequest, ptr %26, i32 0, i32 0
  %28 = load i32, ptr %27, align 8, !tbaa !692
  %29 = icmp eq i32 %28, 1
  br i1 %29, label %30, label %50

30:                                               ; preds = %24
  call void @llvm.lifetime.start.p0(i64 4, ptr %10) #17
  store i32 0, ptr %10, align 4, !tbaa !9
  br label %31

31:                                               ; preds = %46, %30
  %32 = load i32, ptr %10, align 4, !tbaa !9
  %33 = load ptr, ptr %4, align 8, !tbaa !699
  %34 = getelementptr inbounds nuw %struct.ImGuiMultiSelectIO, ptr %33, i32 0, i32 5
  %35 = load i32, ptr %34, align 4, !tbaa !729
  %36 = icmp slt i32 %32, %35
  br i1 %36, label %38, label %37

37:                                               ; preds = %31
  store i32 4, ptr %8, align 4
  call void @llvm.lifetime.end.p0(i64 4, ptr %10) #17
  br label %49

38:                                               ; preds = %31
  %39 = getelementptr inbounds nuw %struct.ImGuiSelectionExternalStorage, ptr %12, i32 0, i32 1
  %40 = load ptr, ptr %39, align 8, !tbaa !738
  %41 = load i32, ptr %10, align 4, !tbaa !9
  %42 = load ptr, ptr %9, align 8, !tbaa !701
  %43 = getelementptr inbounds nuw %struct.ImGuiSelectionRequest, ptr %42, i32 0, i32 1
  %44 = load i8, ptr %43, align 4, !tbaa !695, !range !59, !noundef !60
  %45 = trunc i8 %44 to i1
  call void %40(ptr noundef %12, i32 noundef %41, i1 noundef zeroext %45)
  br label %46

46:                                               ; preds = %38
  %47 = load i32, ptr %10, align 4, !tbaa !9
  %48 = add nsw i32 %47, 1
  store i32 %48, ptr %10, align 4, !tbaa !9
  br label %31, !llvm.loop !739

49:                                               ; preds = %37
  br label %50

50:                                               ; preds = %49, %24
  %51 = load ptr, ptr %9, align 8, !tbaa !701
  %52 = getelementptr inbounds nuw %struct.ImGuiSelectionRequest, ptr %51, i32 0, i32 0
  %53 = load i32, ptr %52, align 8, !tbaa !692
  %54 = icmp eq i32 %53, 2
  br i1 %54, label %55, label %80

55:                                               ; preds = %50
  call void @llvm.lifetime.start.p0(i64 4, ptr %11) #17
  %56 = load ptr, ptr %9, align 8, !tbaa !701
  %57 = getelementptr inbounds nuw %struct.ImGuiSelectionRequest, ptr %56, i32 0, i32 3
  %58 = load i64, ptr %57, align 8, !tbaa !697
  %59 = trunc i64 %58 to i32
  store i32 %59, ptr %11, align 4, !tbaa !9
  br label %60

60:                                               ; preds = %76, %55
  %61 = load i32, ptr %11, align 4, !tbaa !9
  %62 = load ptr, ptr %9, align 8, !tbaa !701
  %63 = getelementptr inbounds nuw %struct.ImGuiSelectionRequest, ptr %62, i32 0, i32 4
  %64 = load i64, ptr %63, align 8, !tbaa !698
  %65 = trunc i64 %64 to i32
  %66 = icmp sle i32 %61, %65
  br i1 %66, label %68, label %67

67:                                               ; preds = %60
  store i32 7, ptr %8, align 4
  call void @llvm.lifetime.end.p0(i64 4, ptr %11) #17
  br label %79

68:                                               ; preds = %60
  %69 = getelementptr inbounds nuw %struct.ImGuiSelectionExternalStorage, ptr %12, i32 0, i32 1
  %70 = load ptr, ptr %69, align 8, !tbaa !738
  %71 = load i32, ptr %11, align 4, !tbaa !9
  %72 = load ptr, ptr %9, align 8, !tbaa !701
  %73 = getelementptr inbounds nuw %struct.ImGuiSelectionRequest, ptr %72, i32 0, i32 1
  %74 = load i8, ptr %73, align 4, !tbaa !695, !range !59, !noundef !60
  %75 = trunc i8 %74 to i1
  call void %70(ptr noundef %12, i32 noundef %71, i1 noundef zeroext %75)
  br label %76

76:                                               ; preds = %68
  %77 = load i32, ptr %11, align 4, !tbaa !9
  %78 = add nsw i32 %77, 1
  store i32 %78, ptr %11, align 4, !tbaa !9
  br label %60, !llvm.loop !740

79:                                               ; preds = %67
  br label %80

80:                                               ; preds = %79, %50
  call void @llvm.lifetime.end.p0(i64 8, ptr %9) #17
  br label %81

81:                                               ; preds = %80
  %82 = load ptr, ptr %6, align 8, !tbaa !701
  %83 = getelementptr inbounds nuw %struct.ImGuiSelectionRequest, ptr %82, i32 1
  store ptr %83, ptr %6, align 8, !tbaa !701
  br label %19

84:                                               ; preds = %23
  ret void
}