; Function Attrs: mustprogress uwtable
define dso_local void @_ZN29ImGuiSelectionExternalStorage13ApplyRequestsEP18ImGuiMultiSelectIO(ptr noundef nonnull align 8 dereferenceable(16) %0, ptr noundef readonly captures(none) %1) local_unnamed_addr #5 align 2 {
  %3 = getelementptr inbounds nuw i8, ptr %1, i64 8
  %4 = load ptr, ptr %3, align 8, !tbaa !255
  %5 = load i32, ptr %1, align 8, !tbaa !256
  %6 = sext i32 %5 to i64
  %7 = getelementptr inbounds %struct.ImGuiSelectionRequest, ptr %4, i64 %6
  %.not27 = icmp eq i32 %5, 0
  br i1 %.not27, label %._crit_edge, label %.lr.ph30

.lr.ph30:                                         ; preds = %2
  %8 = getelementptr inbounds nuw i8, ptr %1, i64 36
  %9 = getelementptr inbounds nuw i8, ptr %0, i64 8
  br label %10

._crit_edge:                                      ; preds = %.loopexit, %2
  ret void

10:                                               ; preds = %.lr.ph30, %.loopexit
  %.02128 = phi ptr [ %4, %.lr.ph30 ], [ %40, %.loopexit ]
  %11 = load i32, ptr %.02128, align 8, !tbaa !613
  %12 = icmp eq i32 %11, 1
  br i1 %12, label %.preheader, label %thread-pre-split

.preheader:                                       ; preds = %10
  %13 = load i32, ptr %8, align 4, !tbaa !646
  %14 = icmp sgt i32 %13, 0
  br i1 %14, label %.lr.ph, label %.loopexit

.lr.ph:                                           ; preds = %.preheader
  %15 = getelementptr inbounds nuw i8, ptr %.02128, i64 4
  br label %16

16:                                               ; preds = %.lr.ph, %16
  %.02023 = phi i32 [ 0, %.lr.ph ], [ %20, %16 ]
  %17 = load ptr, ptr %9, align 8, !tbaa !651
  %18 = load i8, ptr %15, align 4, !tbaa !616, !range !152, !noundef !153
  %19 = trunc nuw i8 %18 to i1
  tail call void %17(ptr noundef nonnull %0, i32 noundef %.02023, i1 noundef zeroext %19)
  %20 = add nuw nsw i32 %.02023, 1
  %21 = load i32, ptr %8, align 4, !tbaa !646
  %22 = icmp slt i32 %20, %21
  br i1 %22, label %16, label %thread-pre-split.loopexit, !llvm.loop !653

thread-pre-split.loopexit:                        ; preds = %16
  %.pr.pre = load i32, ptr %.02128, align 8, !tbaa !613
  br label %thread-pre-split

thread-pre-split:                                 ; preds = %thread-pre-split.loopexit, %10
  %23 = phi i32 [ %11, %10 ], [ %.pr.pre, %thread-pre-split.loopexit ]
  %24 = icmp eq i32 %23, 2
  br i1 %24, label %25, label %.loopexit

25:                                               ; preds = %thread-pre-split
  %26 = getelementptr inbounds nuw i8, ptr %.02128, i64 8
  %27 = load i64, ptr %26, align 8, !tbaa !617
  %28 = trunc i64 %27 to i32
  %29 = getelementptr inbounds nuw i8, ptr %.02128, i64 16
  %30 = load i64, ptr %29, align 8, !tbaa !618
  %31 = trunc i64 %30 to i32
  %.not2224 = icmp sgt i32 %28, %31
  br i1 %.not2224, label %.loopexit, label %.lr.ph26

.lr.ph26:                                         ; preds = %25
  %32 = getelementptr inbounds nuw i8, ptr %.02128, i64 4
  br label %33

33:                                               ; preds = %.lr.ph26, %33
  %.025 = phi i32 [ %28, %.lr.ph26 ], [ %37, %33 ]
  %34 = load ptr, ptr %9, align 8, !tbaa !651
  %35 = load i8, ptr %32, align 4, !tbaa !616, !range !152, !noundef !153
  %36 = trunc nuw i8 %35 to i1
  tail call void %34(ptr noundef nonnull %0, i32 noundef %.025, i1 noundef zeroext %36)
  %37 = add nsw i32 %.025, 1
  %38 = load i64, ptr %29, align 8, !tbaa !618
  %39 = trunc i64 %38 to i32
  %.not22.not = icmp slt i32 %.025, %39
  br i1 %.not22.not, label %33, label %.loopexit, !llvm.loop !654

.loopexit:                                        ; preds = %33, %.preheader, %25, %thread-pre-split
  %40 = getelementptr inbounds nuw i8, ptr %.02128, i64 24
  %.not = icmp eq ptr %40, %7
  br i1 %.not, label %._crit_edge, label %10
}